target datalayout = "e-m:e-p270:32:32-p271:32:32-p272:64:64-i64:64-i128:128-f80:128-n8:16:32:64-S128"
target triple = "x86_64-pc-linux-gnu"

%struct.GetBitContext = type { ptr, ptr, i32, i32, i32 }
%struct.CodedBitstreamContext = type { ptr, ptr, ptr, ptr, i32, i32, i32, ptr, ptr, ptr, ptr, i64 }
%struct.CodedBitstreamUnit = type { i32, ptr, i64, i64, ptr, ptr, ptr }

@.str.8 = private unnamed_addr constant [30 x i8] c"Assertion %s failed at %s:%d\0A\00", align 1
@.str.10 = private unnamed_addr constant [21 x i8] c"libavcodec/cbs_av1.c\00", align 1
@.str.252 = private unnamed_addr constant [63 x i8] c"Bitstream ended before any data in tile group (%d bits read).\0A\00", align 1
@.str.253 = private unnamed_addr constant [13 x i8] c"pos % 8 == 0\00", align 1

; Function Attrs: inlinehint nounwind uwtable
define internal i32 @get_bits_count(ptr noundef %0) #4 {
  %2 = alloca ptr, align 8
  store ptr %0, ptr %2, align 8, !tbaa !103
  %3 = load ptr, ptr %2, align 8, !tbaa !103
  %4 = getelementptr inbounds nuw %struct.GetBitContext, ptr %3, i32 0, i32 2
  %5 = load i32, ptr %4, align 8, !tbaa !110
  ret i32 %5
}

; Function Attrs: nounwind uwtable
define internal i32 @cbs_av1_ref_tile_data(ptr noundef %0, ptr noundef %1, ptr noundef %2, ptr noundef %3, ptr noundef %4, ptr noundef %5) #0 {
  %7 = alloca i32, align 4
  %8 = alloca ptr, align 8
  %9 = alloca ptr, align 8
  %10 = alloca ptr, align 8
  %11 = alloca ptr, align 8
  %12 = alloca ptr, align 8
  %13 = alloca ptr, align 8
  %14 = alloca i32, align 4
  %15 = alloca i32, align 4
  store ptr %0, ptr %8, align 8, !tbaa !4
  store ptr %1, ptr %9, align 8, !tbaa !35
  store ptr %2, ptr %10, align 8, !tbaa !103
  store ptr %3, ptr %11, align 8, !tbaa !168
  store ptr %4, ptr %12, align 8, !tbaa !171
  store ptr %5, ptr %13, align 8, !tbaa !118
  call void @llvm.lifetime.start.p0(i64 4, ptr %14) #8
  %16 = load ptr, ptr %10, align 8, !tbaa !103
  %17 = call i32 @get_bits_count(ptr noundef %16)
  store i32 %17, ptr %14, align 4, !tbaa !11
  %18 = load i32, ptr %14, align 4, !tbaa !11
  %19 = sext i32 %18 to i64
  %20 = load ptr, ptr %9, align 8, !tbaa !35
  %21 = getelementptr inbounds nuw %struct.CodedBitstreamUnit, ptr %20, i32 0, i32 2
  %22 = load i64, ptr %21, align 8, !tbaa !44
  %23 = mul i64 8, %22
  %24 = icmp uge i64 %19, %23
  br i1 %24, label %25, label %30

25:                                               ; preds = %6
  %26 = load ptr, ptr %8, align 8, !tbaa !4
  %27 = getelementptr inbounds nuw %struct.CodedBitstreamContext, ptr %26, i32 0, i32 0
  %28 = load ptr, ptr %27, align 8, !tbaa !26
  %29 = load i32, ptr %14, align 4, !tbaa !11
  call void (ptr, i32, ptr, ...) @av_log(ptr noundef %28, i32 noundef 16, ptr noundef @.str.252, i32 noundef %29)
  store i32 -1094995529, ptr %7, align 4
  store i32 1, ptr %15, align 4
  br label %65

30:                                               ; preds = %6
  br label %31

31:                                               ; preds = %30
  %32 = load i32, ptr %14, align 4, !tbaa !11
  %33 = srem i32 %32, 8
  %34 = icmp eq i32 %33, 0
  br i1 %34, label %36, label %35

35:                                               ; preds = %31
  call void (ptr, i32, ptr, ...) @av_log(ptr noundef null, i32 noundef 0, ptr noundef @.str.8, ptr noundef @.str.253, ptr noundef @.str.10, i32 noundef 825)
  call void @abort() #9
  unreachable

36:                                               ; preds = %31
  br label %37

37:                                               ; preds = %36
  br label %38

38:                                               ; preds = %37
  %39 = load ptr, ptr %9, align 8, !tbaa !35
  %40 = getelementptr inbounds nuw %struct.CodedBitstreamUnit, ptr %39, i32 0, i32 4
  %41 = load ptr, ptr %40, align 8, !tbaa !68
  %42 = call ptr @av_buffer_ref(ptr noundef %41)
  %43 = load ptr, ptr %11, align 8, !tbaa !168
  store ptr %42, ptr %43, align 8, !tbaa !75
  %44 = load ptr, ptr %11, align 8, !tbaa !168
  %45 = load ptr, ptr %44, align 8, !tbaa !75
  %46 = icmp ne ptr %45, null
  br i1 %46, label %48, label %47

47:                                               ; preds = %38
  store i32 -12, ptr %7, align 4
  store i32 1, ptr %15, align 4
  br label %65

48:                                               ; preds = %38
  %49 = load ptr, ptr %9, align 8, !tbaa !35
  %50 = getelementptr inbounds nuw %struct.CodedBitstreamUnit, ptr %49, i32 0, i32 1
  %51 = load ptr, ptr %50, align 8, !tbaa !43
  %52 = load i32, ptr %14, align 4, !tbaa !11
  %53 = sdiv i32 %52, 8
  %54 = sext i32 %53 to i64
  %55 = getelementptr inbounds i8, ptr %51, i64 %54
  %56 = load ptr, ptr %12, align 8, !tbaa !171
  store ptr %55, ptr %56, align 8, !tbaa !23
  %57 = load ptr, ptr %9, align 8, !tbaa !35
  %58 = getelementptr inbounds nuw %struct.CodedBitstreamUnit, ptr %57, i32 0, i32 2
  %59 = load i64, ptr %58, align 8, !tbaa !44
  %60 = load i32, ptr %14, align 4, !tbaa !11
  %61 = sdiv i32 %60, 8
  %62 = sext i32 %61 to i64
  %63 = sub i64 %59, %62
  %64 = load ptr, ptr %13, align 8, !tbaa !118
  store i64 %63, ptr %64, align 8, !tbaa !25
  store i32 0, ptr %7, align 4
  store i32 1, ptr %15, align 4
  br label %65

65:                                               ; preds = %48, %47, %25
  call void @llvm.lifetime.end.p0(i64 4, ptr %14) #8
  %66 = load i32, ptr %7, align 4
  ret i32 %66
}