; Function Attrs: nounwind uwtable
define internal fastcc range(i32 -1094995529, 1) i32 @cbs_av1_ref_tile_data(ptr noundef readonly captures(none) %0, ptr noundef readonly captures(none) %1, i32 %.16.val, ptr noundef writeonly captures(none) %2, ptr noundef writeonly captures(none) %3, ptr noundef writeonly captures(none) %4) unnamed_addr #0 {
  %6 = sext i32 %.16.val to i64
  %7 = getelementptr inbounds nuw i8, ptr %1, i64 16
  %8 = load i64, ptr %7, align 8, !tbaa !37
  %9 = shl i64 %8, 3
  %.not = icmp ugt i64 %9, %6
  br i1 %.not, label %12, label %10

10:                                               ; preds = %5
  %11 = load ptr, ptr %0, align 8, !tbaa !19
  tail call void (ptr, i32, ptr, ...) @av_log(ptr noundef %11, i32 noundef 16, ptr noundef nonnull @.str.252, i32 noundef %.16.val) #8
  br label %28

12:                                               ; preds = %5
  %13 = and i32 %.16.val, 7
  %14 = icmp eq i32 %13, 0
  br i1 %14, label %16, label %15

15:                                               ; preds = %12
  tail call void (ptr, i32, ptr, ...) @av_log(ptr noundef null, i32 noundef 0, ptr noundef nonnull @.str.8, ptr noundef nonnull @.str.253, ptr noundef nonnull @.str.10, i32 noundef 825) #8
  tail call void @abort() #9
  unreachable

16:                                               ; preds = %12
  %17 = getelementptr inbounds nuw i8, ptr %1, i64 32
  %18 = load ptr, ptr %17, align 8, !tbaa !62
  %19 = tail call ptr @av_buffer_ref(ptr noundef %18) #8
  store ptr %19, ptr %2, align 8, !tbaa !63
  %.not15 = icmp eq ptr %19, null
  br i1 %.not15, label %28, label %20

20:                                               ; preds = %16
  %21 = getelementptr inbounds nuw i8, ptr %1, i64 8
  %22 = load ptr, ptr %21, align 8, !tbaa !36
  %23 = ashr exact i32 %.16.val, 3
  %24 = sext i32 %23 to i64
  %25 = getelementptr inbounds i8, ptr %22, i64 %24
  store ptr %25, ptr %3, align 8, !tbaa !64
  %26 = load i64, ptr %7, align 8, !tbaa !37
  %27 = sub i64 %26, %24
  store i64 %27, ptr %4, align 8, !tbaa !30
  br label %28

28:                                               ; preds = %16, %20, %10
  %.0 = phi i32 [ -1094995529, %10 ], [ 0, %20 ], [ -12, %16 ]
  ret i32 %.0
}